target datalayout = "e-m:e-p270:32:32-p271:32:32-p272:64:64-i64:64-i128:128-f80:128-n8:16:32:64-S128"
target triple = "x86_64-pc-linux-gnu"

@subpel_filters = internal constant [7 x [6 x i8]] [[6 x i8] c"\00\06{\0C\01\00", [6 x i8] c"\02\0Bl$\08\01", [6 x i8] c"\00\09]2\06\00", [6 x i8] c"\03\10MM\10\03", [6 x i8] c"\00\062]\09\00", [6 x i8] c"\01\08$l\0B\02", [6 x i8] c"\00\01\0C{\06\00"], align 16
@ff_crop_tab = external hidden constant [2304 x i8], align 16

; Function Attrs: nounwind uwtable
define internal void @put_vp8_epel16_h6_c(ptr noundef %0, i64 noundef %1, ptr noundef %2, i64 noundef %3, i32 noundef %4, i32 noundef %5, i32 noundef %6) #1 {
  %8 = alloca ptr, align 8
  %9 = alloca i64, align 8
  %10 = alloca ptr, align 8
  %11 = alloca i64, align 8
  %12 = alloca i32, align 4
  %13 = alloca i32, align 4
  %14 = alloca i32, align 4
  %15 = alloca ptr, align 8
  %16 = alloca ptr, align 8
  %17 = alloca i32, align 4
  %18 = alloca i32, align 4
  store ptr %0, ptr %8, align 8, !tbaa !10
  store i64 %1, ptr %9, align 8, !tbaa !12
  store ptr %2, ptr %10, align 8, !tbaa !10
  store i64 %3, ptr %11, align 8, !tbaa !12
  store i32 %4, ptr %12, align 4, !tbaa !14
  store i32 %5, ptr %13, align 4, !tbaa !14
  store i32 %6, ptr %14, align 4, !tbaa !14
  call void @llvm.lifetime.start.p0(i64 8, ptr %15) #6
  %19 = load i32, ptr %13, align 4, !tbaa !14
  %20 = sub nsw i32 %19, 1
  %21 = sext i32 %20 to i64
  %22 = getelementptr inbounds [7 x [6 x i8]], ptr @subpel_filters, i64 0, i64 %21
  %23 = getelementptr inbounds [6 x i8], ptr %22, i64 0, i64 0
  store ptr %23, ptr %15, align 8, !tbaa !10
  call void @llvm.lifetime.start.p0(i64 8, ptr %16) #6
  store ptr getelementptr inbounds (i8, ptr @ff_crop_tab, i64 1024), ptr %16, align 8, !tbaa !10
  call void @llvm.lifetime.start.p0(i64 4, ptr %17) #6
  call void @llvm.lifetime.start.p0(i64 4, ptr %18) #6
  store i32 0, ptr %18, align 4, !tbaa !14
  br label %24

24:                                               ; preds = %130, %7
  %25 = load i32, ptr %18, align 4, !tbaa !14
  %26 = load i32, ptr %12, align 4, !tbaa !14
  %27 = icmp slt i32 %25, %26
  br i1 %27, label %28, label %133

28:                                               ; preds = %24
  store i32 0, ptr %17, align 4, !tbaa !14
  br label %29

29:                                               ; preds = %120, %28
  %30 = load i32, ptr %17, align 4, !tbaa !14
  %31 = icmp slt i32 %30, 16
  br i1 %31, label %32, label %123

32:                                               ; preds = %29
  %33 = load ptr, ptr %16, align 8, !tbaa !10
  %34 = load ptr, ptr %15, align 8, !tbaa !10
  %35 = getelementptr inbounds i8, ptr %34, i64 2
  %36 = load i8, ptr %35, align 1, !tbaa !18
  %37 = zext i8 %36 to i32
  %38 = load ptr, ptr %10, align 8, !tbaa !10
  %39 = load i32, ptr %17, align 4, !tbaa !14
  %40 = add nsw i32 %39, 0
  %41 = sext i32 %40 to i64
  %42 = getelementptr inbounds i8, ptr %38, i64 %41
  %43 = load i8, ptr %42, align 1, !tbaa !18
  %44 = zext i8 %43 to i32
  %45 = mul nsw i32 %37, %44
  %46 = load ptr, ptr %15, align 8, !tbaa !10
  %47 = getelementptr inbounds i8, ptr %46, i64 1
  %48 = load i8, ptr %47, align 1, !tbaa !18
  %49 = zext i8 %48 to i32
  %50 = load ptr, ptr %10, align 8, !tbaa !10
  %51 = load i32, ptr %17, align 4, !tbaa !14
  %52 = sub nsw i32 %51, 1
  %53 = sext i32 %52 to i64
  %54 = getelementptr inbounds i8, ptr %50, i64 %53
  %55 = load i8, ptr %54, align 1, !tbaa !18
  %56 = zext i8 %55 to i32
  %57 = mul nsw i32 %49, %56
  %58 = sub nsw i32 %45, %57
  %59 = load ptr, ptr %15, align 8, !tbaa !10
  %60 = getelementptr inbounds i8, ptr %59, i64 0
  %61 = load i8, ptr %60, align 1, !tbaa !18
  %62 = zext i8 %61 to i32
  %63 = load ptr, ptr %10, align 8, !tbaa !10
  %64 = load i32, ptr %17, align 4, !tbaa !14
  %65 = sub nsw i32 %64, 2
  %66 = sext i32 %65 to i64
  %67 = getelementptr inbounds i8, ptr %63, i64 %66
  %68 = load i8, ptr %67, align 1, !tbaa !18
  %69 = zext i8 %68 to i32
  %70 = mul nsw i32 %62, %69
  %71 = add nsw i32 %58, %70
  %72 = load ptr, ptr %15, align 8, !tbaa !10
  %73 = getelementptr inbounds i8, ptr %72, i64 3
  %74 = load i8, ptr %73, align 1, !tbaa !18
  %75 = zext i8 %74 to i32
  %76 = load ptr, ptr %10, align 8, !tbaa !10
  %77 = load i32, ptr %17, align 4, !tbaa !14
  %78 = add nsw i32 %77, 1
  %79 = sext i32 %78 to i64
  %80 = getelementptr inbounds i8, ptr %76, i64 %79
  %81 = load i8, ptr %80, align 1, !tbaa !18
  %82 = zext i8 %81 to i32
  %83 = mul nsw i32 %75, %82
  %84 = add nsw i32 %71, %83
  %85 = load ptr, ptr %15, align 8, !tbaa !10
  %86 = getelementptr inbounds i8, ptr %85, i64 4
  %87 = load i8, ptr %86, align 1, !tbaa !18
  %88 = zext i8 %87 to i32
  %89 = load ptr, ptr %10, align 8, !tbaa !10
  %90 = load i32, ptr %17, align 4, !tbaa !14
  %91 = add nsw i32 %90, 2
  %92 = sext i32 %91 to i64
  %93 = getelementptr inbounds i8, ptr %89, i64 %92
  %94 = load i8, ptr %93, align 1, !tbaa !18
  %95 = zext i8 %94 to i32
  %96 = mul nsw i32 %88, %95
  %97 = sub nsw i32 %84, %96
  %98 = load ptr, ptr %15, align 8, !tbaa !10
  %99 = getelementptr inbounds i8, ptr %98, i64 5
  %100 = load i8, ptr %99, align 1, !tbaa !18
  %101 = zext i8 %100 to i32
  %102 = load ptr, ptr %10, align 8, !tbaa !10
  %103 = load i32, ptr %17, align 4, !tbaa !14
  %104 = add nsw i32 %103, 3
  %105 = sext i32 %104 to i64
  %106 = getelementptr inbounds i8, ptr %102, i64 %105
  %107 = load i8, ptr %106, align 1, !tbaa !18
  %108 = zext i8 %107 to i32
  %109 = mul nsw i32 %101, %108
  %110 = add nsw i32 %97, %109
  %111 = add nsw i32 %110, 64
  %112 = ashr i32 %111, 7
  %113 = sext i32 %112 to i64
  %114 = getelementptr inbounds i8, ptr %33, i64 %113
  %115 = load i8, ptr %114, align 1, !tbaa !18
  %116 = load ptr, ptr %8, align 8, !tbaa !10
  %117 = load i32, ptr %17, align 4, !tbaa !14
  %118 = sext i32 %117 to i64
  %119 = getelementptr inbounds i8, ptr %116, i64 %118
  store i8 %115, ptr %119, align 1, !tbaa !18
  br label %120

120:                                              ; preds = %32
  %121 = load i32, ptr %17, align 4, !tbaa !14
  %122 = add nsw i32 %121, 1
  store i32 %122, ptr %17, align 4, !tbaa !14
  br label %29, !llvm.loop !21

123:                                              ; preds = %29
  %124 = load i64, ptr %9, align 8, !tbaa !12
  %125 = load ptr, ptr %8, align 8, !tbaa !10
  %126 = getelementptr inbounds i8, ptr %125, i64 %124
  store ptr %126, ptr %8, align 8, !tbaa !10
  %127 = load i64, ptr %11, align 8, !tbaa !12
  %128 = load ptr, ptr %10, align 8, !tbaa !10
  %129 = getelementptr inbounds i8, ptr %128, i64 %127
  store ptr %129, ptr %10, align 8, !tbaa !10
  br label %130

130:                                              ; preds = %123
  %131 = load i32, ptr %18, align 4, !tbaa !14
  %132 = add nsw i32 %131, 1
  store i32 %132, ptr %18, align 4, !tbaa !14
  br label %24, !llvm.loop !22

133:                                              ; preds = %24
  call void @llvm.lifetime.end.p0(i64 4, ptr %18) #6
  call void @llvm.lifetime.end.p0(i64 4, ptr %17) #6
  call void @llvm.lifetime.end.p0(i64 8, ptr %16) #6
  call void @llvm.lifetime.end.p0(i64 8, ptr %15) #6
  ret void
}